(dp1
S'icommand'
p2
ccopy_reg
_reconstructor
p3
(ctwisted.plugin
CachedDropin
p4
c__builtin__
object
p5
NtRp6
(dp7
S'moduleName'
p8
S'ibot.plugins.icommand'
p9
sS'description'
p10
NsS'plugins'
p11
(lp12
sbsS'command'
p13
g3
(g4
g5
NtRp14
(dp15
S'moduleName'
p16
S'ibot.plugins.command'
p17
sS'description'
p18
NsS'plugins'
p19
(lp20
g3
(ctwisted.plugin
CachedPlugin
p21
g5
NtRp22
(dp23
S'provided'
p24
(lp25
ctwisted.plugin
IPlugin
p26
acibot.plugins.icommand
ICommand
p27
asS'dropin'
p28
g14
sS'name'
p29
S'bot_command'
p30
sg18
NsbasbsS'something'
p31
g3
(g4
g5
NtRp32
(dp33
g8
S'ibot.plugins.something'
p34
sg10
Nsg11
(lp35
g3
(g21
g5
NtRp36
(dp37
S'provided'
p38
(lp39
g26
ag27
asS'dropin'
p40
g32
sS'name'
p41
S'bot_command'
p42
sg10
Nsbasbs.