(dp1
S'icommand'
p2
ccopy_reg
_reconstructor
p3
(ctwisted.plugin
CachedDropin
p4
c__builtin__
object
p5
NtRp6
(dp7
S'moduleName'
p8
S'ibot.plugins.icommand'
p9
sS'description'
p10
NsS'plugins'
p11
(lp12
sbsS'command'
p13
g3
(g4
g5
NtRp14
(dp15
S'moduleName'
p16
S'ibot.plugins.command'
p17
sS'description'
p18
NsS'plugins'
p19
(lp20
g3
(ctwisted.plugin
CachedPlugin
p21
g5
NtRp22
(dp23
S'provided'
p24
(lp25
ctwisted.plugin
IPlugin
p26
acibot.plugins.icommand
ICommand
p27
asS'dropin'
p28
g14
sS'name'
p29
S'bot_command'
p30
sg18
NsbasbsS'something'
p31
g3
(g4
g5
NtRp32
(dp33
S'moduleName'
p34
S'ibot.plugins.something'
p35
sS'description'
p36
NsS'plugins'
p37
(lp38
g3
(g21
g5
NtRp39
(dp40
S'provided'
p41
(lp42
g26
ag27
asS'dropin'
p43
g32
sS'name'
p44
S'bot_command'
p45
sg36
Nsbasbs.