(dp1
S'icommand'
p2
ccopy_reg
_reconstructor
p3
(ctwisted.plugin
CachedDropin
p4
c__builtin__
object
p5
NtRp6
(dp7
S'moduleName'
p8
S'derp.plugins.icommand'
p9
sS'description'
p10
NsS'plugins'
p11
(lp12
sbsS'lib'
p13
g3
(g4
g5
NtRp14
(dp15
g8
S'derp.plugins.lib'
p16
sg10
Nsg11
(lp17
sbsS'ip'
p18
g3
(g4
g5
NtRp19
(dp20
g8
S'derp.plugins.ip'
p21
sg10
Nsg11
(lp22
sbsS'utils'
p23
g3
(g4
g5
NtRp24
(dp25
g8
S'derp.plugins.utils'
p26
sg10
Nsg11
(lp27
sbsS'jokes'
p28
g3
(g4
g5
NtRp29
(dp30
g8
S'derp.plugins.jokes'
p31
sg10
Nsg11
(lp32
sbsS'command'
p33
g3
(g4
g5
NtRp34
(dp35
g8
S'derp.plugins.command'
p36
sg10
Nsg11
(lp37
g3
(ctwisted.plugin
CachedPlugin
p38
g5
NtRp39
(dp40
S'provided'
p41
(lp42
ctwisted.plugin
IPlugin
p43
acderp.plugins.icommand
ICommand
p44
asS'dropin'
p45
g34
sS'name'
p46
S'bot_command'
p47
sg10
Nsbasbs.