(dp1
S'icommand'
p2
ccopy_reg
_reconstructor
p3
(ctwisted.plugin
CachedDropin
p4
c__builtin__
object
p5
NtRp6
(dp7
S'moduleName'
p8
S'derp.plugins.icommand'
p9
sS'description'
p10
NsS'plugins'
p11
(lp12
sbsS'ip'
p13
g3
(g4
g5
NtRp14
(dp15
S'moduleName'
p16
S'derp.plugins.ip'
p17
sS'description'
p18
NsS'plugins'
p19
(lp20
g3
(ctwisted.plugin
CachedPlugin
p21
g5
NtRp22
(dp23
S'provided'
p24
(lp25
ctwisted.plugin
IPlugin
p26
acderp.plugins.icommand
ICommand
p27
asS'dropin'
p28
g14
sS'name'
p29
S'nw_util'
p30
sg18
NsbasbsS'utils'
p31
g3
(g4
g5
NtRp32
(dp33
S'moduleName'
p34
S'derp.plugins.utils'
p35
sS'description'
p36
NsS'plugins'
p37
(lp38
sbsS'lib'
p39
g3
(g4
g5
NtRp40
(dp41
g34
S'derp.plugins.lib'
p42
sg36
Nsg37
(lp43
sbsS'jokes'
p44
g3
(g4
g5
NtRp45
(dp46
g34
S'derp.plugins.jokes'
p47
sg36
Nsg37
(lp48
sbs.