(dp1
S'icommand'
p2
ccopy_reg
_reconstructor
p3
(ctwisted.plugin
CachedDropin
p4
c__builtin__
object
p5
NtRp6
(dp7
S'moduleName'
p8
S'derp.plugins.icommand'
p9
sS'description'
p10
NsS'plugins'
p11
(lp12
sbsS'lib'
p13
g3
(g4
g5
NtRp14
(dp15
S'moduleName'
p16
S'derp.plugins.lib'
p17
sS'description'
p18
NsS'plugins'
p19
(lp20
sbsS'ip'
p21
g3
(g4
g5
NtRp22
(dp23
S'moduleName'
p24
S'derp.plugins.ip'
p25
sS'description'
p26
NsS'plugins'
p27
(lp28
g3
(ctwisted.plugin
CachedPlugin
p29
g5
NtRp30
(dp31
S'provided'
p32
(lp33
ctwisted.plugin
IPlugin
p34
acderp.plugins.icommand
ICommand
p35
asS'dropin'
p36
g22
sS'name'
p37
S'nw_util'
p38
sg26
NsbasbsS'utils'
p39
g3
(g4
g5
NtRp40
(dp41
g16
S'derp.plugins.utils'
p42
sg18
Nsg19
(lp43
sbsS'jokes'
p44
g3
(g4
g5
NtRp45
(dp46
g16
S'derp.plugins.jokes'
p47
sg18
Nsg19
(lp48
sbsS'command'
p49
g3
(g4
g5
NtRp50
(dp51
S'moduleName'
p52
S'derp.plugins.command'
p53
sS'description'
p54
NsS'plugins'
p55
(lp56
g3
(g29
g5
NtRp57
(dp58
S'provided'
p59
(lp60
g34
ag35
asS'dropin'
p61
g50
sS'name'
p62
S'bot_command'
p63
sg54
Nsbasbs.