(dp1
S'icommand'
p2
ccopy_reg
_reconstructor
p3
(ctwisted.plugin
CachedDropin
p4
c__builtin__
object
p5
NtRp6
(dp7
S'moduleName'
p8
S'derp.plugins.icommand'
p9
sS'description'
p10
NsS'plugins'
p11
(lp12
sbsS'lib'
p13
g3
(g4
g5
NtRp14
(dp15
g8
S'derp.plugins.lib'
p16
sg10
Nsg11
(lp17
sbsS'ip'
p18
g3
(g4
g5
NtRp19
(dp20
g8
S'derp.plugins.ip'
p21
sg10
Nsg11
(lp22
g3
(ctwisted.plugin
CachedPlugin
p23
g5
NtRp24
(dp25
S'provided'
p26
(lp27
ctwisted.plugin
IPlugin
p28
acderp.plugins.icommand
ICommand
p29
asS'dropin'
p30
g19
sS'name'
p31
S'nw_util'
p32
sg10
NsbasbsS'utils'
p33
g3
(g4
g5
NtRp34
(dp35
g8
S'derp.plugins.utils'
p36
sg10
Nsg11
(lp37
sbsS'jokes'
p38
g3
(g4
g5
NtRp39
(dp40
g8
S'derp.plugins.jokes'
p41
sg10
Nsg11
(lp42
sbsS'command'
p43
g3
(g4
g5
NtRp44
(dp45
g8
S'derp.plugins.command'
p46
sg10
Nsg11
(lp47
g3
(g23
g5
NtRp48
(dp49
g26
(lp50
g28
ag29
asg30
g44
sg31
S'bot_command'
p51
sg10
Nsbasbs.