(dp1
S'icommand'
p2
ccopy_reg
_reconstructor
p3
(ctwisted.plugin
CachedDropin
p4
c__builtin__
object
p5
NtRp6
(dp7
S'moduleName'
p8
S'derp.plugins.icommand'
p9
sS'description'
p10
NsS'plugins'
p11
(lp12
sbsS'lib'
p13
g3
(g4
g5
NtRp14
(dp15
S'moduleName'
p16
S'derp.plugins.lib'
p17
sS'description'
p18
NsS'plugins'
p19
(lp20
sbsS'ip'
p21
g3
(g4
g5
NtRp22
(dp23
S'moduleName'
p24
S'derp.plugins.ip'
p25
sS'description'
p26
NsS'plugins'
p27
(lp28
g3
(ctwisted.plugin
CachedPlugin
p29
g5
NtRp30
(dp31
S'provided'
p32
(lp33
ctwisted.plugin
IPlugin
p34
acderp.plugins.icommand
ICommand
p35
asS'dropin'
p36
g22
sS'name'
p37
S'nw_util'
p38
sg26
NsbasbsS'utils'
p39
g3
(g4
g5
NtRp40
(dp41
g16
S'derp.plugins.utils'
p42
sg18
Nsg19
(lp43
g3
(g29
g5
NtRp44
(dp45
S'provided'
p46
(lp47
g34
ag35
asS'dropin'
p48
g40
sS'name'
p49
S'utils'
p50
sg18
NsbasbsS'jokes'
p51
g3
(g4
g5
NtRp52
(dp53
S'moduleName'
p54
S'derp.plugins.jokes'
p55
sS'description'
p56
NsS'plugins'
p57
(lp58
g3
(g29
g5
NtRp59
(dp60
S'provided'
p61
(lp62
g34
ag35
asS'dropin'
p63
g52
sS'name'
p64
S'jokes'
p65
sg56
NsbasbsS'someothercommand'
p66
g3
(g4
g5
NtRp67
(dp68
S'moduleName'
p69
S'derp.plugins.someothercommand'
p70
sS'description'
p71
NsS'plugins'
p72
(lp73
g3
(g29
g5
NtRp74
(dp75
S'provided'
p76
(lp77
g34
ag35
asS'dropin'
p78
g67
sS'name'
p79
S'bot_command'
p80
sg71
Nsbasbs.