(dp1
S'icommand'
p2
ccopy_reg
_reconstructor
p3
(ctwisted.plugin
CachedDropin
p4
c__builtin__
object
p5
NtRp6
(dp7
S'moduleName'
p8
S'derp.plugins.icommand'
p9
sS'description'
p10
NsS'plugins'
p11
(lp12
sbsS'lib'
p13
g3
(g4
g5
NtRp14
(dp15
S'moduleName'
p16
S'derp.plugins.lib'
p17
sS'description'
p18
NsS'plugins'
p19
(lp20
sbsS'ip'
p21
g3
(g4
g5
NtRp22
(dp23
S'moduleName'
p24
S'derp.plugins.ip'
p25
sS'description'
p26
NsS'plugins'
p27
(lp28
g3
(ctwisted.plugin
CachedPlugin
p29
g5
NtRp30
(dp31
S'provided'
p32
(lp33
ctwisted.plugin
IPlugin
p34
acderp.plugins.icommand
ICommand
p35
asS'dropin'
p36
g22
sS'name'
p37
S'nw_util'
p38
sg26
NsbasbsS'utils'
p39
g3
(g4
g5
NtRp40
(dp41
S'moduleName'
p42
S'derp.plugins.utils'
p43
sS'description'
p44
NsS'plugins'
p45
(lp46
g3
(g29
g5
NtRp47
(dp48
S'provided'
p49
(lp50
g34
ag35
asS'dropin'
p51
g40
sS'name'
p52
S'utils'
p53
sg44
NsbasbsS'jokes'
p54
g3
(g4
g5
NtRp55
(dp56
g16
S'derp.plugins.jokes'
p57
sg18
Nsg19
(lp58
sbsS'someothercommand'
p59
g3
(g4
g5
NtRp60
(dp61
S'moduleName'
p62
S'derp.plugins.someothercommand'
p63
sS'description'
p64
NsS'plugins'
p65
(lp66
g3
(g29
g5
NtRp67
(dp68
S'provided'
p69
(lp70
g34
ag35
asS'dropin'
p71
g60
sS'name'
p72
S'bot_command'
p73
sg64
Nsbasbs.